target datalayout = "e-m:e-p270:32:32-p271:32:32-p272:64:64-i64:64-i128:128-f80:128-n8:16:32:64-S128"
target triple = "x86_64-pc-linux-gnu"

%class.V3Global = type { ptr, ptr, %class.VWidthMinUsage, %"struct.std::atomic", i8, i8, i8, i8, i8, i8, i8, i8, i8, i8, i8, i8, i8, i8, i8, i8, %"class.std::unordered_map", %"class.std::unordered_set", %class.V3Options }
%class.VWidthMinUsage = type { i8 }
%"struct.std::atomic" = type { %"struct.std::__atomic_base" }
%"struct.std::__atomic_base" = type { i32 }
%"class.std::unordered_map" = type { %"class.std::_Hashtable" }
%"class.std::_Hashtable" = type { ptr, i64, %"struct.std::__detail::_Hash_node_base", i64, %"struct.std::__detail::_Prime_rehash_policy", ptr }
%"struct.std::__detail::_Hash_node_base" = type { ptr }
%"struct.std::__detail::_Prime_rehash_policy" = type { float, i64 }
%"class.std::unordered_set" = type { %"class.std::_Hashtable.12" }
%"class.std::_Hashtable.12" = type { ptr, i64, %"struct.std::__detail::_Hash_node_base", i64, %"struct.std::__detail::_Prime_rehash_policy", ptr }
%class.V3Options = type <{ ptr, %"class.std::set", %"class.std::vector.34", %"class.std::vector.34", %"class.std::vector.34", %"class.std::set", %"class.std::set", %"class.std::set", %"class.std::set", %"class.std::set", %"class.std::set", %"class.std::vector.34", %"class.std::vector.34", %"class.std::map", %"class.std::map", %"class.std::map.46", %"class.std::map.51", %"class.std::set", i8, i8, i8, i8, i8, i8, i8, i8, i8, i8, i8, i8, i8, i8, i8, i8, i8, i8, i8, i8, i8, i8, i8, i8, i8, i8, i8, i8, i8, i8, i8, i8, i8, i8, i8, i8, i8, i8, i8, i8, i8, i8, i8, i8, i8, i8, i8, i8, i8, i8, i8, i8, i8, i8, i8, i8, i8, i8, i8, i8, i8, i8, i8, i8, i8, i8, %class.VOptionBool, i8, i8, i8, i8, i8, i8, i8, i8, i8, i8, i8, i8, i8, i32, i32, i32, i32, i32, i32, i32, i32, i32, i8, i8, %class.VOptionBool, i8, i32, i32, i32, i32, i32, i32, i32, i32, %class.VOptionBool, i8, [2 x i8], i32, i32, %class.VTimescale, %class.VTimescale, %class.VTimescale, %class.VTimescale, i32, %class.TraceFormat, [3 x i8], i32, i32, i32, i32, i32, i32, i32, i32, i32, [4 x i8], %"class.std::__cxx11::basic_string", %"class.std::__cxx11::basic_string", %"class.std::__cxx11::basic_string", %"class.std::__cxx11::basic_string", %"class.std::__cxx11::basic_string", %"class.std::__cxx11::basic_string", %"class.std::__cxx11::basic_string", %"class.std::__cxx11::basic_string", %"class.std::__cxx11::basic_string", %"class.std::__cxx11::basic_string", %"class.std::__cxx11::basic_string", %"class.std::__cxx11::basic_string", %"class.std::__cxx11::basic_string", %"class.std::__cxx11::basic_string", %"class.std::__cxx11::basic_string", %"class.std::__cxx11::basic_string", %"class.std::__cxx11::basic_string", %"class.std::__cxx11::basic_string", %"class.std::__cxx11::basic_string", %class.V3LangCode, i8, i8, i8, i8, i8, i8, i8, i8, i8, i8, i8, i8, i8, i8, i8, i8, i8, i8, i8, i8, i8, i8, i8, i8, i8, i8, i8, i8, i8, i8, i8 }>
%"class.std::vector.34" = type { %"struct.std::_Vector_base.35" }
%"struct.std::_Vector_base.35" = type { %"struct.std::_Vector_base<std::__cxx11::basic_string<char>, std::allocator<std::__cxx11::basic_string<char>>>::_Vector_impl" }
%"struct.std::_Vector_base<std::__cxx11::basic_string<char>, std::allocator<std::__cxx11::basic_string<char>>>::_Vector_impl" = type { %"struct.std::_Vector_base<std::__cxx11::basic_string<char>, std::allocator<std::__cxx11::basic_string<char>>>::_Vector_impl_data" }
%"struct.std::_Vector_base<std::__cxx11::basic_string<char>, std::allocator<std::__cxx11::basic_string<char>>>::_Vector_impl_data" = type { ptr, ptr, ptr }
%"class.std::map" = type { %"class.std::_Rb_tree.39" }
%"class.std::_Rb_tree.39" = type { %"struct.std::_Rb_tree<const std::__cxx11::basic_string<char>, std::pair<const std::__cxx11::basic_string<char>, unsigned int>, std::_Select1st<std::pair<const std::__cxx11::basic_string<char>, unsigned int>>, std::less<const std::__cxx11::basic_string<char>>>::_Rb_tree_impl" }
%"struct.std::_Rb_tree<const std::__cxx11::basic_string<char>, std::pair<const std::__cxx11::basic_string<char>, unsigned int>, std::_Select1st<std::pair<const std::__cxx11::basic_string<char>, unsigned int>>, std::less<const std::__cxx11::basic_string<char>>>::_Rb_tree_impl" = type { %"struct.std::_Rb_tree_key_compare.43", %"struct.std::_Rb_tree_header" }
%"struct.std::_Rb_tree_key_compare.43" = type { %"struct.std::less.44" }
%"struct.std::less.44" = type { i8 }
%"struct.std::_Rb_tree_header" = type { %"struct.std::_Rb_tree_node_base", i64 }
%"struct.std::_Rb_tree_node_base" = type { i32, ptr, ptr, ptr }
%"class.std::map.46" = type { %"class.std::_Rb_tree.47" }
%"class.std::_Rb_tree.47" = type { %"struct.std::_Rb_tree<const std::__cxx11::basic_string<char>, std::pair<const std::__cxx11::basic_string<char>, std::__cxx11::basic_string<char>>, std::_Select1st<std::pair<const std::__cxx11::basic_string<char>, std::__cxx11::basic_string<char>>>, std::less<const std::__cxx11::basic_string<char>>>::_Rb_tree_impl" }
%"struct.std::_Rb_tree<const std::__cxx11::basic_string<char>, std::pair<const std::__cxx11::basic_string<char>, std::__cxx11::basic_string<char>>, std::_Select1st<std::pair<const std::__cxx11::basic_string<char>, std::__cxx11::basic_string<char>>>, std::less<const std::__cxx11::basic_string<char>>>::_Rb_tree_impl" = type { %"struct.std::_Rb_tree_key_compare.43", %"struct.std::_Rb_tree_header" }
%"class.std::map.51" = type { %"class.std::_Rb_tree.52" }
%"class.std::_Rb_tree.52" = type { %"struct.std::_Rb_tree<const std::__cxx11::basic_string<char>, std::pair<const std::__cxx11::basic_string<char>, V3HierarchicalBlockOption>, std::_Select1st<std::pair<const std::__cxx11::basic_string<char>, V3HierarchicalBlockOption>>, std::less<const std::__cxx11::basic_string<char>>>::_Rb_tree_impl" }
%"struct.std::_Rb_tree<const std::__cxx11::basic_string<char>, std::pair<const std::__cxx11::basic_string<char>, V3HierarchicalBlockOption>, std::_Select1st<std::pair<const std::__cxx11::basic_string<char>, V3HierarchicalBlockOption>>, std::less<const std::__cxx11::basic_string<char>>>::_Rb_tree_impl" = type { %"struct.std::_Rb_tree_key_compare.43", %"struct.std::_Rb_tree_header" }
%"class.std::set" = type { %"class.std::_Rb_tree" }
%"class.std::_Rb_tree" = type { %"struct.std::_Rb_tree<std::__cxx11::basic_string<char>, std::__cxx11::basic_string<char>, std::_Identity<std::__cxx11::basic_string<char>>, std::less<std::__cxx11::basic_string<char>>>::_Rb_tree_impl" }
%"struct.std::_Rb_tree<std::__cxx11::basic_string<char>, std::__cxx11::basic_string<char>, std::_Identity<std::__cxx11::basic_string<char>>, std::less<std::__cxx11::basic_string<char>>>::_Rb_tree_impl" = type { %"struct.std::_Rb_tree_key_compare", %"struct.std::_Rb_tree_header" }
%"struct.std::_Rb_tree_key_compare" = type { %"struct.std::less" }
%"struct.std::less" = type { i8 }
%class.VOptionBool = type { i8 }
%class.VTimescale = type { i8 }
%class.TraceFormat = type { i8 }
%"class.std::__cxx11::basic_string" = type { %"struct.std::__cxx11::basic_string<char>::_Alloc_hider", i64, %union.anon }
%"struct.std::__cxx11::basic_string<char>::_Alloc_hider" = type { ptr }
%union.anon = type { i64, [8 x i8] }
%class.V3LangCode = type { i8 }
%class.VNType = type { i16 }
%class.AstNode = type { ptr, ptr, ptr, ptr, ptr, ptr, ptr, ptr, %class.VNType, %struct.anon, i8, i32, ptr, ptr, ptr, ptr, %class.VNUser, i32, i32, %class.VNUser, %class.VNUser, i32, i32, %class.VNUser }
%struct.anon = type { i8 }
%class.VNUser = type { %union.anon.3 }
%union.anon.3 = type { ptr }
%class.AstNetlist = type { %class.AstNode, %class.VTimescale, %class.VTimescale, i8, ptr, ptr, ptr, ptr, ptr, ptr, ptr, ptr, ptr, ptr, ptr }

@v3Global = external global %class.V3Global, align 8

; Function Attrs: mustprogress nounwind uwtable
define linkonce_odr dso_local noundef ptr @_ZNK7AstNode8filelineEv(ptr noundef nonnull align 8 dereferenceable(152) %0) #5 comdat align 2 {
  %2 = alloca ptr, align 8
  store ptr %0, ptr %2, align 8
  %3 = load ptr, ptr %2, align 8
  %4 = getelementptr inbounds %class.AstNode, ptr %3, i32 0, i32 14
  %5 = load ptr, ptr %4, align 8
  ret ptr %5
}

; Function Attrs: mustprogress nounwind uwtable
define linkonce_odr dso_local noundef ptr @_ZN10AstNetlist10typeTablepEv(ptr noundef nonnull align 8 dereferenceable(248) %0) #5 comdat align 2 {
  %2 = alloca ptr, align 8
  store ptr %0, ptr %2, align 8
  %3 = load ptr, ptr %2, align 8
  %4 = getelementptr inbounds %class.AstNetlist, ptr %3, i32 0, i32 4
  %5 = load ptr, ptr %4, align 8
  ret ptr %5
}

; Function Attrs: mustprogress nounwind uwtable
define linkonce_odr dso_local noundef ptr @_ZNK8V3Global5rootpEv(ptr noundef nonnull align 8 dereferenceable(1712) %0) #5 comdat align 2 {
  %2 = alloca ptr, align 8
  store ptr %0, ptr %2, align 8
  %3 = load ptr, ptr %2, align 8
  %4 = getelementptr inbounds %class.V3Global, ptr %3, i32 0, i32 0
  %5 = load ptr, ptr %4, align 8
  ret ptr %5
}

; Function Attrs: mustprogress uwtable
define dso_local noundef ptr @_ZNK7AstNode19findEmptyQueueDTypeEv(ptr noundef nonnull align 8 dereferenceable(152) %0) #4 align 2 {
  %2 = alloca ptr, align 8
  store ptr %0, ptr %2, align 8
  %3 = load ptr, ptr %2, align 8
  %4 = call noundef ptr @_ZNK8V3Global5rootpEv(ptr noundef nonnull align 8 dereferenceable(1712) @v3Global)
  %5 = call noundef ptr @_ZN10AstNetlist10typeTablepEv(ptr noundef nonnull align 8 dereferenceable(248) %4)
  %6 = call noundef ptr @_ZNK7AstNode8filelineEv(ptr noundef nonnull align 8 dereferenceable(152) %3)
  %7 = call noundef ptr @_ZN12AstTypeTable19findEmptyQueueDTypeEP8FileLine(ptr noundef nonnull align 8 dereferenceable(448) %5, ptr noundef %6)
  ret ptr %7
}