; Function Attrs: mustprogress uwtable
define dso_local noundef ptr @_ZNK7AstNode19findEmptyQueueDTypeEv(ptr nocapture noundef nonnull readonly align 8 dereferenceable(152) %0) local_unnamed_addr #4 align 2 {
  %2 = load ptr, ptr @v3Global, align 8
  %3 = getelementptr inbounds i8, ptr %2, i64 160
  %4 = load ptr, ptr %3, align 8
  %5 = getelementptr inbounds i8, ptr %0, i64 88
  %6 = load ptr, ptr %5, align 8
  %7 = tail call noundef ptr @_ZN12AstTypeTable19findEmptyQueueDTypeEP8FileLine(ptr noundef nonnull align 8 dereferenceable(448) %4, ptr noundef %6)
  ret ptr %7
}